target datalayout = "e-m:e-p270:32:32-p271:32:32-p272:64:64-i64:64-i128:128-f80:128-n8:16:32:64-S128"
target triple = "x86_64-pc-linux-gnu"

%"class.icu_77::number::Scale" = type <{ i32, [4 x i8], ptr, i32, [4 x i8] }>
%"class.icu_77::StringPiece" = type <{ ptr, i32, [4 x i8] }>
%"class.icu_77::LocalPointer" = type { %"class.icu_77::LocalPointerBase" }
%"class.icu_77::LocalPointerBase" = type { ptr }

@_ZN6icu_776number5ScaleC1EiPNS0_4impl6DecNumE = unnamed_addr alias void (ptr, i32, ptr), ptr @_ZN6icu_776number5ScaleC2EiPNS0_4impl6DecNumE

; Function Attrs: mustprogress nounwind uwtable
define linkonce_odr void @_ZN6icu_7716LocalPointerBaseINS_6number4impl6DecNumEED2Ev(ptr noundef nonnull align 8 dereferenceable(8) %0) unnamed_addr #0 comdat align 2 {
  %2 = alloca ptr, align 8
  store ptr %0, ptr %2, align 8, !tbaa !37
  ret void
}

; Function Attrs: inlinehint mustprogress nounwind uwtable
define internal noundef signext i8 @_ZL9U_SUCCESS10UErrorCode(i32 noundef %0) #2 {
  %2 = alloca i32, align 4
  store i32 %0, ptr %2, align 4, !tbaa !15
  %3 = load i32, ptr %2, align 4, !tbaa !15
  %4 = icmp sle i32 %3, 0
  %5 = zext i1 %4 to i8
  ret i8 %5
}

; Function Attrs: mustprogress nounwind uwtable
define linkonce_odr void @_ZN6icu_7716LocalPointerBaseINS_6number4impl6DecNumEEC2EPS3_(ptr noundef nonnull align 8 dereferenceable(8) %0, ptr noundef %1) unnamed_addr #0 comdat align 2 {
  %3 = alloca ptr, align 8
  %4 = alloca ptr, align 8
  store ptr %0, ptr %3, align 8, !tbaa !37
  store ptr %1, ptr %4, align 8, !tbaa !25
  %5 = load ptr, ptr %3, align 8
  %6 = getelementptr inbounds nuw %"class.icu_77::LocalPointerBase", ptr %5, i32 0, i32 0
  %7 = load ptr, ptr %4, align 8, !tbaa !25
  store ptr %7, ptr %6, align 8, !tbaa !39
  ret void
}

; Function Attrs: mustprogress nounwind uwtable
define linkonce_odr noundef ptr @_ZN6icu_7716LocalPointerBaseINS_6number4impl6DecNumEE6orphanEv(ptr noundef nonnull align 8 dereferenceable(8) %0) #0 comdat align 2 {
  %2 = alloca ptr, align 8
  %3 = alloca ptr, align 8
  store ptr %0, ptr %2, align 8, !tbaa !37
  %4 = load ptr, ptr %2, align 8
  call void @llvm.lifetime.start.p0(i64 8, ptr %3) #10
  %5 = getelementptr inbounds nuw %"class.icu_77::LocalPointerBase", ptr %4, i32 0, i32 0
  %6 = load ptr, ptr %5, align 8, !tbaa !39
  store ptr %6, ptr %3, align 8, !tbaa !25
  %7 = getelementptr inbounds nuw %"class.icu_77::LocalPointerBase", ptr %4, i32 0, i32 0
  store ptr null, ptr %7, align 8, !tbaa !39
  %8 = load ptr, ptr %3, align 8, !tbaa !25
  call void @llvm.lifetime.end.p0(i64 8, ptr %3) #10
  ret ptr %8
}

; Function Attrs: mustprogress nounwind uwtable
define linkonce_odr noundef ptr @_ZNK6icu_7716LocalPointerBaseINS_6number4impl6DecNumEEptEv(ptr noundef nonnull align 8 dereferenceable(8) %0) #0 comdat align 2 {
  %2 = alloca ptr, align 8
  store ptr %0, ptr %2, align 8, !tbaa !37
  %3 = load ptr, ptr %2, align 8
  %4 = getelementptr inbounds nuw %"class.icu_77::LocalPointerBase", ptr %3, i32 0, i32 0
  %5 = load ptr, ptr %4, align 8, !tbaa !39
  ret ptr %5
}

; Function Attrs: mustprogress nounwind uwtable
define linkonce_odr void @_ZN6icu_776number5ScaleC2E10UErrorCode(ptr noundef nonnull align 8 dereferenceable(20) %0, i32 noundef %1) unnamed_addr #0 comdat align 2 {
  %3 = alloca ptr, align 8
  %4 = alloca i32, align 4
  store ptr %0, ptr %3, align 8, !tbaa !23
  store i32 %1, ptr %4, align 4, !tbaa !15
  %5 = load ptr, ptr %3, align 8
  %6 = getelementptr inbounds nuw %"class.icu_77::number::Scale", ptr %5, i32 0, i32 0
  store i32 0, ptr %6, align 8, !tbaa !27
  %7 = getelementptr inbounds nuw %"class.icu_77::number::Scale", ptr %5, i32 0, i32 2
  store ptr null, ptr %7, align 8, !tbaa !29
  %8 = getelementptr inbounds nuw %"class.icu_77::number::Scale", ptr %5, i32 0, i32 3
  %9 = load i32, ptr %4, align 4, !tbaa !15
  store i32 %9, ptr %8, align 8, !tbaa !30
  ret void
}

; Function Attrs: inlinehint mustprogress nounwind uwtable
define internal noundef signext i8 @_ZL9U_FAILURE10UErrorCode(i32 noundef %0) #2 {
  %2 = alloca i32, align 4
  store i32 %0, ptr %2, align 4, !tbaa !15
  %3 = load i32, ptr %2, align 4, !tbaa !15
  %4 = icmp sgt i32 %3, 0
  %5 = zext i1 %4 to i8
  ret i8 %5
}

; Function Attrs: mustprogress uwtable
define linkonce_odr void @_ZN6icu_7712LocalPointerINS_6number4impl6DecNumEEC2EPS3_R10UErrorCode(ptr noundef nonnull align 8 dereferenceable(8) %0, ptr noundef %1, ptr noundef nonnull align 4 dereferenceable(4) %2) unnamed_addr #1 comdat align 2 personality ptr @__gxx_personality_v0 {
  %4 = alloca ptr, align 8
  %5 = alloca ptr, align 8
  %6 = alloca ptr, align 8
  %7 = alloca ptr, align 8
  %8 = alloca i32, align 4
  store ptr %0, ptr %4, align 8, !tbaa !35
  store ptr %1, ptr %5, align 8, !tbaa !25
  store ptr %2, ptr %6, align 8, !tbaa !22
  %9 = load ptr, ptr %4, align 8
  %10 = load ptr, ptr %5, align 8, !tbaa !25
  call void @_ZN6icu_7716LocalPointerBaseINS_6number4impl6DecNumEEC2EPS3_(ptr noundef nonnull align 8 dereferenceable(8) %9, ptr noundef %10)
  %11 = load ptr, ptr %5, align 8, !tbaa !25
  %12 = icmp eq ptr %11, null
  br i1 %12, label %13, label %25

13:                                               ; preds = %3
  %14 = load ptr, ptr %6, align 8, !tbaa !22
  %15 = load i32, ptr %14, align 4, !tbaa !15
  %16 = invoke noundef signext i8 @_ZL9U_SUCCESS10UErrorCode(i32 noundef %15)
          to label %17 unwind label %21

17:                                               ; preds = %13
  %18 = icmp ne i8 %16, 0
  br i1 %18, label %19, label %25

19:                                               ; preds = %17
  %20 = load ptr, ptr %6, align 8, !tbaa !22
  store i32 7, ptr %20, align 4, !tbaa !15
  br label %25

21:                                               ; preds = %13
  %22 = landingpad { ptr, i32 }
          cleanup
  %23 = extractvalue { ptr, i32 } %22, 0
  store ptr %23, ptr %7, align 8
  %24 = extractvalue { ptr, i32 } %22, 1
  store i32 %24, ptr %8, align 4
  call void @_ZN6icu_7716LocalPointerBaseINS_6number4impl6DecNumEED2Ev(ptr noundef nonnull align 8 dereferenceable(8) %9) #10
  br label %26

25:                                               ; preds = %19, %17, %3
  ret void

26:                                               ; preds = %21
  %27 = load ptr, ptr %7, align 8
  %28 = load i32, ptr %8, align 4
  %29 = insertvalue { ptr, i32 } poison, ptr %27, 0
  %30 = insertvalue { ptr, i32 } %29, i32 %28, 1
  resume { ptr, i32 } %30
}

; Function Attrs: mustprogress uwtable
define void @_ZN6icu_776number5Scale9byDecimalENS_11StringPieceE(ptr dead_on_unwind noalias writable sret(%"class.icu_77::number::Scale") align 8 %0, ptr %1, i32 %2) #1 align 2 personality ptr @__gxx_personality_v0 {
  %4 = alloca ptr, align 8
  %5 = alloca %"class.icu_77::StringPiece", align 8
  %6 = alloca i32, align 4
  %7 = alloca %"class.icu_77::LocalPointer", align 8
  %8 = alloca i1, align 1
  %9 = alloca ptr, align 8
  %10 = alloca i32, align 4
  %11 = alloca i32, align 4
  %12 = alloca %"class.icu_77::StringPiece", align 8
  store ptr %0, ptr %4, align 8
  %13 = getelementptr inbounds nuw { ptr, i32 }, ptr %5, i32 0, i32 0
  store ptr %1, ptr %13, align 8
  %14 = getelementptr inbounds nuw { ptr, i32 }, ptr %5, i32 0, i32 1
  store i32 %2, ptr %14, align 8
  call void @llvm.lifetime.start.p0(i64 4, ptr %6) #10
  store i32 0, ptr %6, align 4, !tbaa !15
  call void @llvm.lifetime.start.p0(i64 8, ptr %7) #10
  %15 = call noundef ptr @_ZN6icu_777UMemorynwEm(i64 noundef 96) #10
  %16 = icmp eq ptr %15, null
  store i1 false, ptr %8, align 1
  br i1 %16, label %19, label %17

17:                                               ; preds = %3
  store i1 true, ptr %8, align 1
  invoke void @_ZN6icu_776number4impl6DecNumC1Ev(ptr noundef nonnull align 8 dereferenceable(92) %15)
          to label %18 unwind label %28

18:                                               ; preds = %17
  br label %19

19:                                               ; preds = %18, %3
  %20 = phi ptr [ %15, %18 ], [ null, %3 ]
  call void @_ZN6icu_7712LocalPointerINS_6number4impl6DecNumEEC2EPS3_R10UErrorCode(ptr noundef nonnull align 8 dereferenceable(8) %7, ptr noundef %20, ptr noundef nonnull align 4 dereferenceable(4) %6)
  %21 = load i32, ptr %6, align 4, !tbaa !15
  %22 = invoke noundef signext i8 @_ZL9U_FAILURE10UErrorCode(i32 noundef %21)
          to label %23 unwind label %35

23:                                               ; preds = %19
  %24 = icmp ne i8 %22, 0
  br i1 %24, label %25, label %39

25:                                               ; preds = %23
  %26 = load i32, ptr %6, align 4, !tbaa !15
  invoke void @_ZN6icu_776number5ScaleC2E10UErrorCode(ptr noundef nonnull align 8 dereferenceable(20) %0, i32 noundef %26)
          to label %27 unwind label %35

27:                                               ; preds = %25
  store i32 1, ptr %11, align 4
  br label %58

28:                                               ; preds = %17
  %29 = landingpad { ptr, i32 }
          cleanup
  %30 = extractvalue { ptr, i32 } %29, 0
  store ptr %30, ptr %9, align 8
  %31 = extractvalue { ptr, i32 } %29, 1
  store i32 %31, ptr %10, align 4
  %32 = load i1, ptr %8, align 1
  br i1 %32, label %33, label %34

33:                                               ; preds = %28
  call void @_ZN6icu_777UMemorydlEPv(ptr noundef %15) #10
  br label %34

34:                                               ; preds = %33, %28
  br label %59

35:                                               ; preds = %56, %54, %51, %46, %41, %39, %25, %19
  %36 = landingpad { ptr, i32 }
          cleanup
  %37 = extractvalue { ptr, i32 } %36, 0
  store ptr %37, ptr %9, align 8
  %38 = extractvalue { ptr, i32 } %36, 1
  store i32 %38, ptr %10, align 4
  call void @_ZN6icu_7712LocalPointerINS_6number4impl6DecNumEED2Ev(ptr noundef nonnull align 8 dereferenceable(8) %7) #10
  br label %59

39:                                               ; preds = %23
  %40 = invoke noundef ptr @_ZNK6icu_7716LocalPointerBaseINS_6number4impl6DecNumEEptEv(ptr noundef nonnull align 8 dereferenceable(8) %7)
          to label %41 unwind label %35

41:                                               ; preds = %39
  call void @llvm.memcpy.p0.p0.i64(ptr align 8 %12, ptr align 8 %5, i64 16, i1 false)
  %42 = getelementptr inbounds nuw { ptr, i32 }, ptr %12, i32 0, i32 0
  %43 = load ptr, ptr %42, align 8
  %44 = getelementptr inbounds nuw { ptr, i32 }, ptr %12, i32 0, i32 1
  %45 = load i32, ptr %44, align 8
  invoke void @_ZN6icu_776number4impl6DecNum5setToENS_11StringPieceER10UErrorCode(ptr noundef nonnull align 8 dereferenceable(92) %40, ptr %43, i32 %45, ptr noundef nonnull align 4 dereferenceable(4) %6)
          to label %46 unwind label %35

46:                                               ; preds = %41
  %47 = load i32, ptr %6, align 4, !tbaa !15
  %48 = invoke noundef signext i8 @_ZL9U_FAILURE10UErrorCode(i32 noundef %47)
          to label %49 unwind label %35

49:                                               ; preds = %46
  %50 = icmp ne i8 %48, 0
  br i1 %50, label %51, label %54

51:                                               ; preds = %49
  %52 = load i32, ptr %6, align 4, !tbaa !15
  invoke void @_ZN6icu_776number5ScaleC2E10UErrorCode(ptr noundef nonnull align 8 dereferenceable(20) %0, i32 noundef %52)
          to label %53 unwind label %35

53:                                               ; preds = %51
  store i32 1, ptr %11, align 4
  br label %58

54:                                               ; preds = %49
  %55 = invoke noundef ptr @_ZN6icu_7716LocalPointerBaseINS_6number4impl6DecNumEE6orphanEv(ptr noundef nonnull align 8 dereferenceable(8) %7)
          to label %56 unwind label %35

56:                                               ; preds = %54
  invoke void @_ZN6icu_776number5ScaleC1EiPNS0_4impl6DecNumE(ptr noundef nonnull align 8 dereferenceable(20) %0, i32 noundef 0, ptr noundef %55)
          to label %57 unwind label %35

57:                                               ; preds = %56
  store i32 1, ptr %11, align 4
  br label %58

58:                                               ; preds = %57, %53, %27
  call void @_ZN6icu_7712LocalPointerINS_6number4impl6DecNumEED2Ev(ptr noundef nonnull align 8 dereferenceable(8) %7) #10
  call void @llvm.lifetime.end.p0(i64 8, ptr %7) #10
  call void @llvm.lifetime.end.p0(i64 4, ptr %6) #10
  ret void

59:                                               ; preds = %35, %34
  call void @llvm.lifetime.end.p0(i64 8, ptr %7) #10
  call void @llvm.lifetime.end.p0(i64 4, ptr %6) #10
  br label %60

60:                                               ; preds = %59
  %61 = load ptr, ptr %9, align 8
  %62 = load i32, ptr %10, align 4
  %63 = insertvalue { ptr, i32 } poison, ptr %61, 0
  %64 = insertvalue { ptr, i32 } %63, i32 %62, 1
  resume { ptr, i32 } %64
}